; Function Attrs: mustprogress uwtable
define hidden noundef zeroext i1 @_ZNK19OpenColorIO_v2_4dev11Lut1DOpData9mayLookupENS_8BitDepthE(ptr nocapture noundef nonnull readonly align 8 dereferenceable(364) %this, i32 noundef %incomingDepth) local_unnamed_addr #3 align 2 {
entry:
  %m_halfFlags.i = getelementptr inbounds i8, ptr %this, i64 224
  %0 = load i32, ptr %m_halfFlags.i, align 8
  %and.i.i = and i32 %0, 1
  %cmp.i.i.not = icmp eq i32 %and.i.i, 0
  br i1 %cmp.i.i.not, label %if.else, label %if.then

if.then:                                          ; preds = %entry
  %cmp = icmp eq i32 %incomingDepth, 7
  br label %return

if.else:                                          ; preds = %entry
  %call2 = tail call noundef zeroext i1 @_ZN19OpenColorIO_v2_4dev15IsFloatBitDepthENS_8BitDepthE(i32 noundef %incomingDepth)
  br i1 %call2, label %return, label %if.then3

if.then3:                                         ; preds = %if.else
  %m_length.i = getelementptr inbounds i8, ptr %this, i64 184
  %1 = load i64, ptr %m_length.i, align 8
  %conv = uitofp i64 %1 to double
  %call5 = tail call noundef double @_ZN19OpenColorIO_v2_4dev19GetBitDepthMaxValueENS_8BitDepthE(i32 noundef %incomingDepth)
  %add = fadd double %call5, 1.000000e+00
  %cmp6 = fcmp oeq double %add, %conv
  br label %return

return:                                           ; preds = %if.else, %if.then3, %if.then
  %retval.0 = phi i1 [ %cmp, %if.then ], [ %cmp6, %if.then3 ], [ false, %if.else ]
  ret i1 %retval.0
}